; Function Attrs: mustprogress uwtable
define noundef signext range(i8 0, 2) i8 @_ZNK6icu_7720CollationDataBuilder10isAssignedEi(ptr noundef nonnull readonly align 8 captures(none) dereferenceable(640) %0, i32 noundef %1) local_unnamed_addr #6 align 2 {
  %3 = getelementptr inbounds nuw i8, ptr %0, i64 32
  %4 = load ptr, ptr %3, align 8, !tbaa !80
  %5 = tail call i32 @utrie2_get32_77(ptr noundef %4, i32 noundef %1)
  %6 = icmp ne i32 %5, 192
  %7 = icmp ne i32 %5, -1
  %8 = and i1 %6, %7
  %9 = zext i1 %8 to i8
  ret i8 %9
}